target datalayout = "e-m:e-p270:32:32-p271:32:32-p272:64:64-i64:64-i128:128-f80:128-n8:16:32:64-S128"
target triple = "x86_64-unknown-linux-gnu"

%struct.EAConditionData = type { %union.pthread_cond_t }
%union.pthread_cond_t = type { %struct.__pthread_cond_s }
%struct.__pthread_cond_s = type { %union.__atomic_wide_counter, %union.__atomic_wide_counter, [2 x i32], [2 x i32], i32, i32, [2 x i32] }
%union.__atomic_wide_counter = type { i64 }
%"class.EA::Thread::Condition" = type { %struct.EAConditionData }

; Function Attrs: mustprogress nounwind uwtable
define dso_local noundef zeroext i1 @_ZN2EA6Thread9Condition6SignalEb(ptr noundef nonnull align 8 dereferenceable(48) %this, i1 noundef zeroext %bBroadcast) #1 align 2 {
entry:
  %retval = alloca i1, align 1
  %this.addr = alloca ptr, align 8
  %bBroadcast.addr = alloca i8, align 1
  store ptr %this, ptr %this.addr, align 8
  %frombool = zext i1 %bBroadcast to i8
  store i8 %frombool, ptr %bBroadcast.addr, align 1
  %this1 = load ptr, ptr %this.addr, align 8
  %0 = load i8, ptr %bBroadcast.addr, align 1
  %tobool = trunc i8 %0 to i1
  br i1 %tobool, label %if.then, label %if.end

if.then:                                          ; preds = %entry
  %mConditionData = getelementptr inbounds %"class.EA::Thread::Condition", ptr %this1, i32 0, i32 0
  %mCV = getelementptr inbounds %struct.EAConditionData, ptr %mConditionData, i32 0, i32 0
  %call = call i32 @pthread_cond_broadcast(ptr noundef %mCV) #8
  %cmp = icmp eq i32 %call, 0
  store i1 %cmp, ptr %retval, align 1
  br label %return

if.end:                                           ; preds = %entry
  %mConditionData2 = getelementptr inbounds %"class.EA::Thread::Condition", ptr %this1, i32 0, i32 0
  %mCV3 = getelementptr inbounds %struct.EAConditionData, ptr %mConditionData2, i32 0, i32 0
  %call4 = call i32 @pthread_cond_signal(ptr noundef %mCV3) #8
  %cmp5 = icmp eq i32 %call4, 0
  store i1 %cmp5, ptr %retval, align 1
  br label %return

return:                                           ; preds = %if.end, %if.then
  %1 = load i1, ptr %retval, align 1
  ret i1 %1
}