; Function Attrs: mustprogress nounwind uwtable
define dso_local noundef zeroext i1 @_ZN2EA6Thread9Condition6SignalEb(ptr noundef nonnull align 8 dereferenceable(48) %this, i1 noundef zeroext %bBroadcast) local_unnamed_addr #2 align 2 {
entry:
  br i1 %bBroadcast, label %if.then, label %if.end

if.then:                                          ; preds = %entry
  %call = tail call i32 @pthread_cond_broadcast(ptr noundef nonnull %this) #10
  br label %return

if.end:                                           ; preds = %entry
  %call4 = tail call i32 @pthread_cond_signal(ptr noundef nonnull %this) #10
  br label %return

return:                                           ; preds = %if.end, %if.then
  %retval.0.in = phi i32 [ %call, %if.then ], [ %call4, %if.end ]
  %retval.0 = icmp eq i32 %retval.0.in, 0
  ret i1 %retval.0
}